; Function Attrs: mustprogress nounwind uwtable
define hidden void @_ZN6cineon6ReaderD2Ev(ptr nocapture noundef nonnull align 8 dereferenceable(2080) %this) unnamed_addr #5 align 2 personality ptr @__gxx_personality_v0 {
entry:
  store ptr getelementptr inbounds ({ [4 x ptr] }, ptr @_ZTVN6cineon6ReaderE, i64 0, i32 0, i64 2), ptr %this, align 8
  %codec.i = getelementptr inbounds i8, ptr %this, i64 2064
  %0 = load ptr, ptr %codec.i, align 8
  %isnull.i = icmp eq ptr %0, null
  br i1 %isnull.i, label %delete.end.i, label %delete.notnull.i

delete.notnull.i:                                 ; preds = %entry
  %vtable.i = load ptr, ptr %0, align 8
  %vfn.i = getelementptr inbounds i8, ptr %vtable.i, i64 8
  %1 = load ptr, ptr %vfn.i, align 8
  tail call void %1(ptr noundef nonnull align 8 dereferenceable(16) %0) #10
  br label %delete.end.i

delete.end.i:                                     ; preds = %delete.notnull.i, %entry
  store ptr null, ptr %codec.i, align 8
  %rio.i = getelementptr inbounds i8, ptr %this, i64 2072
  %2 = load ptr, ptr %rio.i, align 8
  %tobool.not.i = icmp eq ptr %2, null
  br i1 %tobool.not.i, label %if.end.i, label %delete.notnull5.i

delete.notnull5.i:                                ; preds = %delete.end.i
  %vtable6.i = load ptr, ptr %2, align 8
  %vfn7.i = getelementptr inbounds i8, ptr %vtable6.i, i64 8
  %3 = load ptr, ptr %vfn7.i, align 8
  tail call void %3(ptr noundef nonnull align 8 dereferenceable(16) %2) #10
  store ptr null, ptr %rio.i, align 8
  br label %if.end.i

if.end.i:                                         ; preds = %delete.notnull5.i, %delete.end.i
  %fd.i = getelementptr inbounds i8, ptr %this, i64 2056
  %4 = load ptr, ptr %fd.i, align 8
  %tobool10.not.i = icmp eq ptr %4, null
  br i1 %tobool10.not.i, label %delete.end, label %if.then11.i

if.then11.i:                                      ; preds = %if.end.i
  %call.i1 = invoke noalias noundef nonnull dereferenceable(16) ptr @_Znwm(i64 noundef 16) #11
          to label %call.i.noexc unwind label %terminate.lpad

call.i.noexc:                                     ; preds = %if.then11.i
  invoke void @_ZN6cineon17ElementReadStreamC1EPNS_8InStreamE(ptr noundef nonnull align 8 dereferenceable(16) %call.i1, ptr noundef nonnull %4)
          to label %delete.notnull unwind label %lpad.i

lpad.i:                                           ; preds = %call.i.noexc
  %5 = landingpad { ptr, i32 }
          catch ptr null
  tail call void @_ZdlPv(ptr noundef nonnull %call.i1) #12
  br label %terminate.lpad.body

delete.notnull:                                   ; preds = %call.i.noexc
  store ptr %call.i1, ptr %rio.i, align 8
  %vtable = load ptr, ptr %call.i1, align 8
  %vfn = getelementptr inbounds i8, ptr %vtable, i64 8
  %6 = load ptr, ptr %vfn, align 8
  tail call void %6(ptr noundef nonnull align 8 dereferenceable(16) %call.i1) #10
  br label %delete.end

delete.end:                                       ; preds = %if.end.i, %delete.notnull
  ret void

terminate.lpad:                                   ; preds = %if.then11.i
  %7 = landingpad { ptr, i32 }
          catch ptr null
  br label %terminate.lpad.body

terminate.lpad.body:                              ; preds = %lpad.i, %terminate.lpad
  %eh.lpad-body = phi { ptr, i32 } [ %7, %terminate.lpad ], [ %5, %lpad.i ]
  %8 = extractvalue { ptr, i32 } %eh.lpad-body, 0
  tail call void @__clang_call_terminate(ptr %8) #13
  unreachable
}